; Function Attrs: mustprogress nounwind uwtable
define void @_ZN6Assimp11BatchLoaderD2Ev(ptr noundef nonnull readonly align 8 captures(none) dereferenceable(8) %0) unnamed_addr #11 align 2 {
  %2 = load ptr, ptr %0, align 8
  %3 = getelementptr inbounds nuw i8, ptr %2, i64 16
  %.sroa.02.05 = load ptr, ptr %3, align 8
  %.not6 = icmp eq ptr %.sroa.02.05, %3
  br i1 %.not6, label %._crit_edge.thread, label %.lr.ph

._crit_edge:                                      ; preds = %9
  %4 = icmp eq ptr %.pr, null
  br i1 %4, label %11, label %._crit_edge.thread

.lr.ph:                                           ; preds = %1, %9
  %.pr8 = phi ptr [ %.pr, %9 ], [ %2, %1 ]
  %.sroa.02.07 = phi ptr [ %.sroa.02.0, %9 ], [ %.sroa.02.05, %1 ]
  %5 = getelementptr inbounds nuw i8, ptr %.sroa.02.07, i64 56
  %6 = load ptr, ptr %5, align 8
  %7 = icmp eq ptr %6, null
  br i1 %7, label %9, label %8

8:                                                ; preds = %.lr.ph
  tail call void @_ZN7aiSceneD1Ev(ptr noundef nonnull align 8 dereferenceable(1168) %6) #27
  tail call void @_ZdlPvm(ptr noundef nonnull %6, i64 noundef 1168) #28
  %.pr.pre = load ptr, ptr %0, align 8
  br label %9

9:                                                ; preds = %.lr.ph, %8
  %.pr = phi ptr [ %.pr8, %.lr.ph ], [ %.pr.pre, %8 ]
  %.sroa.02.0 = load ptr, ptr %.sroa.02.07, align 8
  %10 = getelementptr inbounds nuw i8, ptr %.pr, i64 16
  %.not = icmp eq ptr %.sroa.02.0, %10
  br i1 %.not, label %._crit_edge, label %.lr.ph, !llvm.loop !58

._crit_edge.thread:                               ; preds = %1, %._crit_edge
  %.lcssa11 = phi ptr [ %.pr, %._crit_edge ], [ %2, %1 ]
  tail call void @_ZN6Assimp9BatchDataD2Ev(ptr noundef nonnull align 8 dereferenceable(77) %.lcssa11) #27
  tail call void @_ZdlPvm(ptr noundef nonnull %.lcssa11, i64 noundef 80) #28
  br label %11

11:                                               ; preds = %._crit_edge.thread, %._crit_edge
  ret void
}